; ModuleID = '61/1572.c'
source_filename = "61/1572.c"
target datalayout = "e-m:e-p270:32:32-p271:32:32-p272:64:64-i64:64-f80:128-n8:16:32:64-S128"
target triple = "x86_64-pc-linux-gnu"

@.str = private unnamed_addr constant [3 x i8] c"%d\00", align 1
@.str.1 = private unnamed_addr constant [3 x i8] c"1\0A\00", align 1
@.str.2 = private unnamed_addr constant [4 x i8] c"%d\0A\00", align 1

; Function Attrs: noinline nounwind uwtable
define dso_local i32 @main() #0 {
  %1 = alloca i32, align 4
  %2 = alloca i32, align 4
  %3 = alloca i32, align 4
  %4 = alloca i32, align 4
  %5 = alloca i32, align 4
  %6 = alloca i32, align 4
  %7 = alloca i32, align 4
  %8 = alloca i32, align 4
  store i32 0, i32* %1, align 4
  %9 = call i32 (i8*, ...) @__isoc99_scanf(i8* getelementptr inbounds ([3 x i8], [3 x i8]* @.str, i64 0, i64 0), i32* %2)
  store i32 0, i32* %4, align 4
  br label %10

10:                                               ; preds = %41, %0
  %11 = load i32, i32* %4, align 4
  %12 = load i32, i32* %2, align 4
  %13 = icmp slt i32 %11, %12
  br i1 %13, label %14, label %44

14:                                               ; preds = %10
  %15 = call i32 (i8*, ...) @__isoc99_scanf(i8* getelementptr inbounds ([3 x i8], [3 x i8]* @.str, i64 0, i64 0), i32* %3)
  %16 = load i32, i32* %3, align 4
  %17 = icmp eq i32 %16, 1
  br i1 %17, label %21, label %18

18:                                               ; preds = %14
  %19 = load i32, i32* %3, align 4
  %20 = icmp eq i32 %19, 2
  br i1 %20, label %21, label %23

21:                                               ; preds = %18, %14
  %22 = call i32 (i8*, ...) @printf(i8* getelementptr inbounds ([3 x i8], [3 x i8]* @.str.1, i64 0, i64 0))
  br label %40

23:                                               ; preds = %18
  store i32 1, i32* %5, align 4
  store i32 1, i32* %6, align 4
  store i32 3, i32* %7, align 4
  br label %24

24:                                               ; preds = %34, %23
  %25 = load i32, i32* %7, align 4
  %26 = load i32, i32* %3, align 4
  %27 = icmp sle i32 %25, %26
  br i1 %27, label %28, label %37

28:                                               ; preds = %24
  %29 = load i32, i32* %5, align 4
  %30 = load i32, i32* %6, align 4
  %31 = add nsw i32 %29, %30
  store i32 %31, i32* %8, align 4
  %32 = load i32, i32* %5, align 4
  store i32 %32, i32* %6, align 4
  %33 = load i32, i32* %8, align 4
  store i32 %33, i32* %5, align 4
  br label %34

34:                                               ; preds = %28
  %35 = load i32, i32* %7, align 4
  %36 = add nsw i32 %35, 1
  store i32 %36, i32* %7, align 4
  br label %24

37:                                               ; preds = %24
  %38 = load i32, i32* %8, align 4
  %39 = call i32 (i8*, ...) @printf(i8* getelementptr inbounds ([4 x i8], [4 x i8]* @.str.2, i64 0, i64 0), i32 %38)
  br label %40

40:                                               ; preds = %37, %21
  br label %41

41:                                               ; preds = %40
  %42 = load i32, i32* %4, align 4
  %43 = add nsw i32 %42, 1
  store i32 %43, i32* %4, align 4
  br label %10

44:                                               ; preds = %10
  ret i32 0
}

declare dso_local i32 @__isoc99_scanf(i8*, ...) #1

declare dso_local i32 @printf(i8*, ...) #1


!llvm.module.flags = !{!0}
!llvm.ident = !{!1}

!0 = !{i32 1, !"wchar_size", i32 4}
!1 = !{!"clang version 10.0.0-4ubuntu1 "}
